; Function Attrs: nounwind uwtable
define dso_local range(i32 0, 2) i32 @keyIsExpired(ptr noundef readonly captures(none) %0, ptr noundef readonly captures(none) %1) local_unnamed_addr #0 {
  %3 = load volatile i32, ptr getelementptr inbounds nuw (i8, ptr @server, i64 2412), align 4, !tbaa !71
  %.not = icmp eq i32 %3, 0
  br i1 %.not, label %4, label %getExpire.exit.thread

4:                                                ; preds = %2
  %5 = getelementptr inbounds nuw i8, ptr %1, i64 8
  %6 = load ptr, ptr %5, align 8, !tbaa !18
  %7 = getelementptr inbounds nuw i8, ptr %0, i64 8
  %8 = load ptr, ptr %7, align 8, !tbaa !72
  %9 = load ptr, ptr getelementptr inbounds nuw (i8, ptr @server, i64 1480), align 8, !tbaa !20
  %.not.i.i.i.i = icmp eq ptr %9, null
  br i1 %.not.i.i.i.i, label %18, label %10

10:                                               ; preds = %4
  %11 = getelementptr inbounds nuw i8, ptr %9, i64 232
  %12 = load i32, ptr %11, align 8, !tbaa !44
  %13 = icmp sgt i32 %12, -1
  br i1 %13, label %14, label %18

14:                                               ; preds = %10
  %15 = getelementptr inbounds nuw i8, ptr %9, i64 8
  %16 = load i64, ptr %15, align 8, !tbaa !55
  %17 = and i64 %16, 536870912
  %.not3.i.i.i.i = icmp eq i64 %17, 0
  br i1 %.not3.i.i.i.i, label %18, label %dbFindExpires.exit.i

18:                                               ; preds = %14, %10, %4
  %19 = tail call i32 @calculateKeySlot(ptr noundef %6)
  br label %dbFindExpires.exit.i

dbFindExpires.exit.i:                             ; preds = %18, %14
  %.0.i.i.i.i = phi i32 [ %19, %18 ], [ %12, %14 ]
  %20 = tail call ptr @kvstoreDictFind(ptr noundef %8, i32 noundef %.0.i.i.i.i, ptr noundef %6) #20
  %21 = icmp eq ptr %20, null
  br i1 %21, label %getExpire.exit.thread, label %getExpire.exit

getExpire.exit:                                   ; preds = %dbFindExpires.exit.i
  %22 = tail call i64 @dictGetSignedIntegerVal(ptr noundef nonnull %20) #20
  %23 = icmp slt i64 %22, 0
  br i1 %23, label %getExpire.exit.thread, label %24

24:                                               ; preds = %getExpire.exit
  %25 = tail call i64 @commandTimeSnapshot() #20
  %26 = icmp sgt i64 %25, %22
  %27 = zext i1 %26 to i32
  br label %getExpire.exit.thread

getExpire.exit.thread:                            ; preds = %dbFindExpires.exit.i, %24, %getExpire.exit, %2
  %.0 = phi i32 [ 0, %2 ], [ %27, %24 ], [ 0, %getExpire.exit ], [ 0, %dbFindExpires.exit.i ]
  ret i32 %.0
}